; Function Attrs: mustprogress nofree norecurse nosync nounwind willreturn memory(read, inaccessiblemem: none) uwtable
define range(i32 -22, 1) i32 @mriStepInnerStepper_HasRequiredOps(ptr noundef readonly captures(address_is_null) %0) local_unnamed_addr #3 {
  %2 = icmp eq ptr %0, null
  br i1 %2, label %9, label %3

3:                                                ; preds = %1
  %4 = getelementptr inbounds nuw i8, ptr %0, i64 8
  %5 = load ptr, ptr %4, align 8, !tbaa !103
  %6 = icmp eq ptr %5, null
  br i1 %6, label %9, label %7

7:                                                ; preds = %3
  %8 = load ptr, ptr %5, align 8, !tbaa !106
  %.not = icmp eq ptr %8, null
  %. = select i1 %.not, i32 -22, i32 0
  br label %9

9:                                                ; preds = %7, %3, %1
  %.0 = phi i32 [ -22, %1 ], [ -22, %3 ], [ %., %7 ]
  ret i32 %.0
}